; Function Attrs: nounwind uwtable
define range(i32 0, 2) i32 @Abc_NtkDfsCheck_rec(ptr noundef readonly %0, ptr noundef %1) local_unnamed_addr #2 {
  %3 = icmp eq ptr %0, %1
  br i1 %3, label %.critedge, label %4

4:                                                ; preds = %2
  %5 = tail call fastcc i32 @Abc_NodeIsTravIdCurrent(ptr noundef %0)
  %.not = icmp eq i32 %5, 0
  br i1 %.not, label %6, label %.critedge

6:                                                ; preds = %4
  %.val20 = load ptr, ptr %0, align 8, !tbaa !124
  %7 = getelementptr i8, ptr %0, i64 16
  %.val21 = load i32, ptr %7, align 8, !tbaa !129
  %8 = getelementptr inbounds nuw i8, ptr %.val20, i64 216
  %9 = load i32, ptr %8, align 8, !tbaa !219
  %10 = getelementptr inbounds nuw i8, ptr %.val20, i64 224
  %11 = add nsw i32 %.val21, 1
  %12 = getelementptr inbounds nuw i8, ptr %.val20, i64 228
  %13 = load i32, ptr %12, align 4, !tbaa !85
  %.not.i.not.i.i.i = icmp slt i32 %.val21, %13
  br i1 %.not.i.not.i.i.i, label %Abc_NodeSetTravIdCurrent.exit, label %14

14:                                               ; preds = %6
  %15 = load i32, ptr %10, align 8, !tbaa !86
  %16 = shl nsw i32 %15, 1
  %.not.i.i.i = icmp slt i32 %.val21, %16
  %.not.i.i.not.i.i.i = icmp sgt i32 %15, %.val21
  br i1 %.not.i.i.i, label %29, label %17

17:                                               ; preds = %14
  br i1 %.not.i.i.not.i.i.i, label %Vec_IntGrow.exit.i.i.i.i, label %18

18:                                               ; preds = %17
  %19 = getelementptr inbounds nuw i8, ptr %.val20, i64 232
  %20 = load ptr, ptr %19, align 8, !tbaa !84
  %.not9.i.i.i.i.i = icmp eq ptr %20, null
  %21 = sext i32 %11 to i64
  %22 = shl nsw i64 %21, 2
  br i1 %.not9.i.i.i.i.i, label %25, label %23

23:                                               ; preds = %18
  %24 = tail call ptr @realloc(ptr noundef nonnull %20, i64 noundef %22) #26
  br label %27

25:                                               ; preds = %18
  %26 = tail call noalias ptr @malloc(i64 noundef %22) #27
  br label %27

27:                                               ; preds = %25, %23
  %28 = phi ptr [ %24, %23 ], [ %26, %25 ]
  store ptr %28, ptr %19, align 8, !tbaa !84
  br label %Vec_IntGrow.exit.sink.split.i.i.i.i

29:                                               ; preds = %14
  br i1 %.not.i.i.not.i.i.i, label %Vec_IntGrow.exit.i.i.i.i, label %30

30:                                               ; preds = %29
  %31 = getelementptr inbounds nuw i8, ptr %.val20, i64 232
  %32 = load ptr, ptr %31, align 8, !tbaa !84
  %.not9.i21.i.i.i.i = icmp eq ptr %32, null
  %33 = sext i32 %16 to i64
  %34 = shl nsw i64 %33, 2
  br i1 %.not9.i21.i.i.i.i, label %37, label %35

35:                                               ; preds = %30
  %36 = tail call ptr @realloc(ptr noundef nonnull %32, i64 noundef %34) #26
  br label %39

37:                                               ; preds = %30
  %38 = tail call noalias ptr @malloc(i64 noundef %34) #27
  br label %39

39:                                               ; preds = %37, %35
  %40 = phi ptr [ %36, %35 ], [ %38, %37 ]
  store ptr %40, ptr %31, align 8, !tbaa !84
  br label %Vec_IntGrow.exit.sink.split.i.i.i.i

Vec_IntGrow.exit.sink.split.i.i.i.i:              ; preds = %39, %27
  %.sink.i.i.i.i = phi i32 [ %16, %39 ], [ %11, %27 ]
  store i32 %.sink.i.i.i.i, ptr %10, align 8, !tbaa !86
  %.pre.i.i.i = load i32, ptr %12, align 4, !tbaa !85
  br label %Vec_IntGrow.exit.i.i.i.i

Vec_IntGrow.exit.i.i.i.i:                         ; preds = %Vec_IntGrow.exit.sink.split.i.i.i.i, %29, %17
  %41 = phi i32 [ %.pre.i.i.i, %Vec_IntGrow.exit.sink.split.i.i.i.i ], [ %13, %29 ], [ %13, %17 ]
  %.not4.i.i.i = icmp sgt i32 %41, %.val21
  br i1 %.not4.i.i.i, label %._crit_edge.i.i.i.i, label %.lr.ph.i.i.i.i

.lr.ph.i.i.i.i:                                   ; preds = %Vec_IntGrow.exit.i.i.i.i
  %42 = getelementptr inbounds nuw i8, ptr %.val20, i64 232
  %43 = load ptr, ptr %42, align 8, !tbaa !84
  %44 = sext i32 %41 to i64
  %45 = shl nsw i64 %44, 2
  %scevgep.i.i.i.i = getelementptr i8, ptr %43, i64 %45
  %46 = sub i32 %.val21, %41
  %47 = zext i32 %46 to i64
  %48 = shl nuw nsw i64 %47, 2
  %49 = add nuw nsw i64 %48, 4
  tail call void @llvm.memset.p0.i64(ptr noundef nonnull align 4 dereferenceable(1) %scevgep.i.i.i.i, i8 0, i64 %49, i1 false), !tbaa !96
  br label %._crit_edge.i.i.i.i

._crit_edge.i.i.i.i:                              ; preds = %.lr.ph.i.i.i.i, %Vec_IntGrow.exit.i.i.i.i
  store i32 %11, ptr %12, align 4, !tbaa !85
  br label %Abc_NodeSetTravIdCurrent.exit

Abc_NodeSetTravIdCurrent.exit:                    ; preds = %6, %._crit_edge.i.i.i.i
  %50 = getelementptr i8, ptr %.val20, i64 232
  %.val.i.i.i = load ptr, ptr %50, align 8, !tbaa !84
  %51 = sext i32 %.val21 to i64
  %52 = getelementptr inbounds i32, ptr %.val.i.i.i, i64 %51
  store i32 %9, ptr %52, align 4, !tbaa !96
  %53 = getelementptr i8, ptr %0, i64 20
  %.val19 = load i32, ptr %53, align 4
  %54 = and i32 %.val19, 15
  switch i32 %54, label %.preheader [
    i32 5, label %.critedge
    i32 2, label %.critedge
  ]

.preheader:                                       ; preds = %Abc_NodeSetTravIdCurrent.exit
  %55 = getelementptr i8, ptr %0, i64 28
  %.val24 = load i32, ptr %55, align 4, !tbaa !121
  %56 = icmp sgt i32 %.val24, 0
  br i1 %56, label %.lr.ph, label %.critedge

.lr.ph:                                           ; preds = %.preheader
  %57 = getelementptr i8, ptr %0, i64 32
  br label %61

58:                                               ; preds = %61
  %indvars.iv.next = add nuw nsw i64 %indvars.iv, 1
  %.val = load i32, ptr %55, align 4, !tbaa !121
  %59 = sext i32 %.val to i64
  %60 = icmp slt i64 %indvars.iv.next, %59
  br i1 %60, label %61, label %.critedge, !llvm.loop !220

61:                                               ; preds = %.lr.ph, %58
  %indvars.iv = phi i64 [ 0, %.lr.ph ], [ %indvars.iv.next, %58 ]
  %.val17 = load ptr, ptr %0, align 8, !tbaa !124
  %.val18 = load ptr, ptr %57, align 8, !tbaa !125
  %62 = getelementptr i8, ptr %.val17, i64 32
  %.val17.val = load ptr, ptr %62, align 8, !tbaa !78
  %63 = getelementptr i8, ptr %.val17.val, i64 8
  %.val17.val.val = load ptr, ptr %63, align 8, !tbaa !80
  %64 = getelementptr inbounds nuw i32, ptr %.val18, i64 %indvars.iv
  %65 = load i32, ptr %64, align 4, !tbaa !96
  %66 = sext i32 %65 to i64
  %67 = getelementptr inbounds ptr, ptr %.val17.val.val, i64 %66
  %68 = load ptr, ptr %67, align 8, !tbaa !81
  %69 = tail call i32 @Abc_NtkDfsCheck_rec(ptr noundef %68, ptr noundef %1)
  %.not16 = icmp eq i32 %69, 0
  br i1 %.not16, label %.critedge, label %58

.critedge:                                        ; preds = %61, %58, %.preheader, %Abc_NodeSetTravIdCurrent.exit, %Abc_NodeSetTravIdCurrent.exit, %4, %2
  %.012 = phi i32 [ 0, %2 ], [ 1, %4 ], [ 1, %Abc_NodeSetTravIdCurrent.exit ], [ 1, %Abc_NodeSetTravIdCurrent.exit ], [ 1, %.preheader ], [ 0, %61 ], [ 1, %58 ]
  ret i32 %.012
}